target datalayout = "e-m:e-p270:32:32-p271:32:32-p272:64:64-i64:64-i128:128-f80:128-n8:16:32:64-S128"
target triple = "x86_64-pc-linux-gnu"

; Function Attrs: nounwind uwtable
define internal void @extract_even2avg_c(ptr noundef %0, ptr noundef %1, ptr noundef %2, ptr noundef %3, i32 noundef %4) #0 {
  %6 = alloca ptr, align 8
  %7 = alloca ptr, align 8
  %8 = alloca ptr, align 8
  %9 = alloca ptr, align 8
  %10 = alloca i32, align 4
  store ptr %0, ptr %6, align 8, !tbaa !4
  store ptr %1, ptr %7, align 8, !tbaa !4
  store ptr %2, ptr %8, align 8, !tbaa !4
  store ptr %3, ptr %9, align 8, !tbaa !4
  store i32 %4, ptr %10, align 4, !tbaa !9
  %11 = load i32, ptr %10, align 4, !tbaa !9
  %12 = load ptr, ptr %8, align 8, !tbaa !4
  %13 = sext i32 %11 to i64
  %14 = getelementptr inbounds i8, ptr %12, i64 %13
  store ptr %14, ptr %8, align 8, !tbaa !4
  %15 = load i32, ptr %10, align 4, !tbaa !9
  %16 = load ptr, ptr %9, align 8, !tbaa !4
  %17 = sext i32 %15 to i64
  %18 = getelementptr inbounds i8, ptr %16, i64 %17
  store ptr %18, ptr %9, align 8, !tbaa !4
  %19 = load i32, ptr %10, align 4, !tbaa !9
  %20 = mul nsw i32 %19, 4
  %21 = load ptr, ptr %6, align 8, !tbaa !4
  %22 = sext i32 %20 to i64
  %23 = getelementptr inbounds i8, ptr %21, i64 %22
  store ptr %23, ptr %6, align 8, !tbaa !4
  %24 = load i32, ptr %10, align 4, !tbaa !9
  %25 = mul nsw i32 %24, 4
  %26 = load ptr, ptr %7, align 8, !tbaa !4
  %27 = sext i32 %25 to i64
  %28 = getelementptr inbounds i8, ptr %26, i64 %27
  store ptr %28, ptr %7, align 8, !tbaa !4
  %29 = load i32, ptr %10, align 4, !tbaa !9
  %30 = sub nsw i32 0, %29
  store i32 %30, ptr %10, align 4, !tbaa !9
  br label %31

31:                                               ; preds = %34, %5
  %32 = load i32, ptr %10, align 4, !tbaa !9
  %33 = icmp slt i32 %32, 0
  br i1 %33, label %34, label %83

34:                                               ; preds = %31
  %35 = load ptr, ptr %6, align 8, !tbaa !4
  %36 = load i32, ptr %10, align 4, !tbaa !9
  %37 = mul nsw i32 4, %36
  %38 = add nsw i32 %37, 0
  %39 = sext i32 %38 to i64
  %40 = getelementptr inbounds i8, ptr %35, i64 %39
  %41 = load i8, ptr %40, align 1, !tbaa !13
  %42 = zext i8 %41 to i32
  %43 = load ptr, ptr %7, align 8, !tbaa !4
  %44 = load i32, ptr %10, align 4, !tbaa !9
  %45 = mul nsw i32 4, %44
  %46 = add nsw i32 %45, 0
  %47 = sext i32 %46 to i64
  %48 = getelementptr inbounds i8, ptr %43, i64 %47
  %49 = load i8, ptr %48, align 1, !tbaa !13
  %50 = zext i8 %49 to i32
  %51 = add nsw i32 %42, %50
  %52 = ashr i32 %51, 1
  %53 = trunc i32 %52 to i8
  %54 = load ptr, ptr %8, align 8, !tbaa !4
  %55 = load i32, ptr %10, align 4, !tbaa !9
  %56 = sext i32 %55 to i64
  %57 = getelementptr inbounds i8, ptr %54, i64 %56
  store i8 %53, ptr %57, align 1, !tbaa !13
  %58 = load ptr, ptr %6, align 8, !tbaa !4
  %59 = load i32, ptr %10, align 4, !tbaa !9
  %60 = mul nsw i32 4, %59
  %61 = add nsw i32 %60, 2
  %62 = sext i32 %61 to i64
  %63 = getelementptr inbounds i8, ptr %58, i64 %62
  %64 = load i8, ptr %63, align 1, !tbaa !13
  %65 = zext i8 %64 to i32
  %66 = load ptr, ptr %7, align 8, !tbaa !4
  %67 = load i32, ptr %10, align 4, !tbaa !9
  %68 = mul nsw i32 4, %67
  %69 = add nsw i32 %68, 2
  %70 = sext i32 %69 to i64
  %71 = getelementptr inbounds i8, ptr %66, i64 %70
  %72 = load i8, ptr %71, align 1, !tbaa !13
  %73 = zext i8 %72 to i32
  %74 = add nsw i32 %65, %73
  %75 = ashr i32 %74, 1
  %76 = trunc i32 %75 to i8
  %77 = load ptr, ptr %9, align 8, !tbaa !4
  %78 = load i32, ptr %10, align 4, !tbaa !9
  %79 = sext i32 %78 to i64
  %80 = getelementptr inbounds i8, ptr %77, i64 %79
  store i8 %76, ptr %80, align 1, !tbaa !13
  %81 = load i32, ptr %10, align 4, !tbaa !9
  %82 = add nsw i32 %81, 1
  store i32 %82, ptr %10, align 4, !tbaa !9
  br label %31, !llvm.loop !104

83:                                               ; preds = %31
  ret void
}

; Function Attrs: nounwind uwtable
define internal void @extract_even_c(ptr noundef %0, ptr noundef %1, i32 noundef %2) #0 {
  %4 = alloca ptr, align 8
  %5 = alloca ptr, align 8
  %6 = alloca i32, align 4
  store ptr %0, ptr %4, align 8, !tbaa !4
  store ptr %1, ptr %5, align 8, !tbaa !4
  store i32 %2, ptr %6, align 4, !tbaa !9
  %7 = load i32, ptr %6, align 4, !tbaa !9
  %8 = load ptr, ptr %5, align 8, !tbaa !4
  %9 = sext i32 %7 to i64
  %10 = getelementptr inbounds i8, ptr %8, i64 %9
  store ptr %10, ptr %5, align 8, !tbaa !4
  %11 = load i32, ptr %6, align 4, !tbaa !9
  %12 = mul nsw i32 %11, 2
  %13 = load ptr, ptr %4, align 8, !tbaa !4
  %14 = sext i32 %12 to i64
  %15 = getelementptr inbounds i8, ptr %13, i64 %14
  store ptr %15, ptr %4, align 8, !tbaa !4
  %16 = load i32, ptr %6, align 4, !tbaa !9
  %17 = sub nsw i32 0, %16
  store i32 %17, ptr %6, align 4, !tbaa !9
  br label %18

18:                                               ; preds = %21, %3
  %19 = load i32, ptr %6, align 4, !tbaa !9
  %20 = icmp slt i32 %19, 0
  br i1 %20, label %21, label %34

21:                                               ; preds = %18
  %22 = load ptr, ptr %4, align 8, !tbaa !4
  %23 = load i32, ptr %6, align 4, !tbaa !9
  %24 = mul nsw i32 2, %23
  %25 = sext i32 %24 to i64
  %26 = getelementptr inbounds i8, ptr %22, i64 %25
  %27 = load i8, ptr %26, align 1, !tbaa !13
  %28 = load ptr, ptr %5, align 8, !tbaa !4
  %29 = load i32, ptr %6, align 4, !tbaa !9
  %30 = sext i32 %29 to i64
  %31 = getelementptr inbounds i8, ptr %28, i64 %30
  store i8 %27, ptr %31, align 1, !tbaa !13
  %32 = load i32, ptr %6, align 4, !tbaa !9
  %33 = add nsw i32 %32, 1
  store i32 %33, ptr %6, align 4, !tbaa !9
  br label %18, !llvm.loop !103

34:                                               ; preds = %18
  ret void
}

; Function Attrs: nounwind uwtable
define internal void @uyvytoyuv420_c(ptr noundef %0, ptr noundef %1, ptr noundef %2, ptr noundef %3, i32 noundef %4, i32 noundef %5, i32 noundef %6, i32 noundef %7, i32 noundef %8) #0 {
  %10 = alloca ptr, align 8
  %11 = alloca ptr, align 8
  %12 = alloca ptr, align 8
  %13 = alloca ptr, align 8
  %14 = alloca i32, align 4
  %15 = alloca i32, align 4
  %16 = alloca i32, align 4
  %17 = alloca i32, align 4
  %18 = alloca i32, align 4
  %19 = alloca i32, align 4
  %20 = alloca i32, align 4
  store ptr %0, ptr %10, align 8, !tbaa !4
  store ptr %1, ptr %11, align 8, !tbaa !4
  store ptr %2, ptr %12, align 8, !tbaa !4
  store ptr %3, ptr %13, align 8, !tbaa !4
  store i32 %4, ptr %14, align 4, !tbaa !9
  store i32 %5, ptr %15, align 4, !tbaa !9
  store i32 %6, ptr %16, align 4, !tbaa !9
  store i32 %7, ptr %17, align 4, !tbaa !9
  store i32 %8, ptr %18, align 4, !tbaa !9
  call void @llvm.lifetime.start.p0(i64 4, ptr %19) #5
  call void @llvm.lifetime.start.p0(i64 4, ptr %20) #5
  %21 = load i32, ptr %14, align 4, !tbaa !9
  %22 = add nsw i32 %21, 2
  %23 = sub nsw i32 %22, 1
  %24 = ashr i32 %23, 1
  store i32 %24, ptr %20, align 4, !tbaa !9
  store i32 0, ptr %19, align 4, !tbaa !9
  br label %25

25:                                               ; preds = %64, %9
  %26 = load i32, ptr %19, align 4, !tbaa !9
  %27 = load i32, ptr %15, align 4, !tbaa !9
  %28 = icmp slt i32 %26, %27
  br i1 %28, label %29, label %67

29:                                               ; preds = %25
  %30 = load ptr, ptr %13, align 8, !tbaa !4
  %31 = getelementptr inbounds i8, ptr %30, i64 1
  %32 = load ptr, ptr %10, align 8, !tbaa !4
  %33 = load i32, ptr %14, align 4, !tbaa !9
  call void @extract_even_c(ptr noundef %31, ptr noundef %32, i32 noundef %33)
  %34 = load i32, ptr %19, align 4, !tbaa !9
  %35 = and i32 %34, 1
  %36 = icmp ne i32 %35, 0
  br i1 %36, label %37, label %55

37:                                               ; preds = %29
  %38 = load ptr, ptr %13, align 8, !tbaa !4
  %39 = load i32, ptr %18, align 4, !tbaa !9
  %40 = sext i32 %39 to i64
  %41 = sub i64 0, %40
  %42 = getelementptr inbounds i8, ptr %38, i64 %41
  %43 = load ptr, ptr %13, align 8, !tbaa !4
  %44 = load ptr, ptr %11, align 8, !tbaa !4
  %45 = load ptr, ptr %12, align 8, !tbaa !4
  %46 = load i32, ptr %20, align 4, !tbaa !9
  call void @extract_even2avg_c(ptr noundef %42, ptr noundef %43, ptr noundef %44, ptr noundef %45, i32 noundef %46)
  %47 = load i32, ptr %17, align 4, !tbaa !9
  %48 = load ptr, ptr %11, align 8, !tbaa !4
  %49 = sext i32 %47 to i64
  %50 = getelementptr inbounds i8, ptr %48, i64 %49
  store ptr %50, ptr %11, align 8, !tbaa !4
  %51 = load i32, ptr %17, align 4, !tbaa !9
  %52 = load ptr, ptr %12, align 8, !tbaa !4
  %53 = sext i32 %51 to i64
  %54 = getelementptr inbounds i8, ptr %52, i64 %53
  store ptr %54, ptr %12, align 8, !tbaa !4
  br label %55

55:                                               ; preds = %37, %29
  %56 = load i32, ptr %18, align 4, !tbaa !9
  %57 = load ptr, ptr %13, align 8, !tbaa !4
  %58 = sext i32 %56 to i64
  %59 = getelementptr inbounds i8, ptr %57, i64 %58
  store ptr %59, ptr %13, align 8, !tbaa !4
  %60 = load i32, ptr %16, align 4, !tbaa !9
  %61 = load ptr, ptr %10, align 8, !tbaa !4
  %62 = sext i32 %60 to i64
  %63 = getelementptr inbounds i8, ptr %61, i64 %62
  store ptr %63, ptr %10, align 8, !tbaa !4
  br label %64

64:                                               ; preds = %55
  %65 = load i32, ptr %19, align 4, !tbaa !9
  %66 = add nsw i32 %65, 1
  store i32 %66, ptr %19, align 4, !tbaa !9
  br label %25, !llvm.loop !95

67:                                               ; preds = %25
  call void @llvm.lifetime.end.p0(i64 4, ptr %20) #5
  call void @llvm.lifetime.end.p0(i64 4, ptr %19) #5
  ret void
}