; Function Attrs: nofree norecurse nosync nounwind memory(argmem: readwrite) uwtable
define internal void @uyvytoyuv420_c(ptr noundef writeonly captures(none) %0, ptr noundef writeonly captures(none) %1, ptr noundef writeonly captures(none) %2, ptr noundef readonly captures(none) %3, i32 noundef %4, i32 noundef %5, i32 noundef %6, i32 noundef %7, i32 noundef %8) #0 {
  %10 = icmp sgt i32 %5, 0
  br i1 %10, label %.lr.ph, label %._crit_edge

.lr.ph:                                           ; preds = %9
  %11 = add i32 %4, 1
  %12 = ashr i32 %11, 1
  %13 = sext i32 %4 to i64
  %14 = shl nsw i32 %4, 1
  %15 = sext i32 %14 to i64
  %16 = icmp sgt i32 %4, 0
  %17 = sub nsw i32 0, %4
  %18 = sext i32 %17 to i64
  %19 = sext i32 %8 to i64
  %20 = sub nsw i64 0, %19
  %21 = sext i32 %12 to i64
  %22 = shl nsw i32 %12, 2
  %23 = sext i32 %22 to i64
  %24 = icmp sgt i32 %12, 0
  %25 = sub nsw i32 0, %12
  %26 = sext i32 %25 to i64
  %27 = sext i32 %7 to i64
  %28 = sext i32 %6 to i64
  br i1 %24, label %.lr.ph.split.us, label %.lr.ph.split

.lr.ph.split.us:                                  ; preds = %.lr.ph
  br i1 %16, label %.lr.ph.preheader.i.us.us, label %extract_even_c.exit.us

.lr.ph.preheader.i.us.us:                         ; preds = %.lr.ph.split.us, %64
  %.035.us.us = phi ptr [ %66, %64 ], [ %0, %.lr.ph.split.us ]
  %.02134.us.us = phi i32 [ %67, %64 ], [ 0, %.lr.ph.split.us ]
  %.02233.us.us = phi ptr [ %.1.us.us, %64 ], [ %1, %.lr.ph.split.us ]
  %.02332.us.us = phi ptr [ %.124.us.us, %64 ], [ %2, %.lr.ph.split.us ]
  %.02531.us.us = phi ptr [ %65, %64 ], [ %3, %.lr.ph.split.us ]
  %29 = getelementptr inbounds nuw i8, ptr %.02531.us.us, i64 1
  %30 = getelementptr inbounds nuw i8, ptr %.035.us.us, i64 %13
  %31 = getelementptr inbounds nuw i8, ptr %29, i64 %15
  br label %.lr.ph.i.us.us

.lr.ph.i.us.us:                                   ; preds = %.lr.ph.i.us.us, %.lr.ph.preheader.i.us.us
  %indvars.iv.i.us.us = phi i64 [ %18, %.lr.ph.preheader.i.us.us ], [ %indvars.iv.next.i.us.us, %.lr.ph.i.us.us ]
  %32 = shl nsw i64 %indvars.iv.i.us.us, 1
  %33 = getelementptr inbounds i8, ptr %31, i64 %32
  %34 = load i8, ptr %33, align 1, !tbaa !8
  %35 = getelementptr inbounds i8, ptr %30, i64 %indvars.iv.i.us.us
  store i8 %34, ptr %35, align 1, !tbaa !8
  %indvars.iv.next.i.us.us = add nsw i64 %indvars.iv.i.us.us, 1
  %36 = and i64 %indvars.iv.next.i.us.us, 4294967295
  %exitcond.not.i.us.us = icmp eq i64 %36, 0
  br i1 %exitcond.not.i.us.us, label %extract_even_c.exit.loopexit.us.us, label %.lr.ph.i.us.us, !llvm.loop !93

.lr.ph.preheader.i26.us.us:                       ; preds = %extract_even_c.exit.loopexit.us.us
  %37 = getelementptr inbounds i8, ptr %.02531.us.us, i64 %20
  %38 = getelementptr inbounds nuw i8, ptr %.02233.us.us, i64 %21
  %39 = getelementptr inbounds nuw i8, ptr %.02332.us.us, i64 %21
  %40 = getelementptr inbounds nuw i8, ptr %37, i64 %23
  %41 = getelementptr inbounds nuw i8, ptr %.02531.us.us, i64 %23
  br label %.lr.ph.i27.us.us

.lr.ph.i27.us.us:                                 ; preds = %.lr.ph.i27.us.us, %.lr.ph.preheader.i26.us.us
  %indvars.iv.i28.us.us = phi i64 [ %26, %.lr.ph.preheader.i26.us.us ], [ %indvars.iv.next.i29.us.us, %.lr.ph.i27.us.us ]
  %42 = shl nsw i64 %indvars.iv.i28.us.us, 2
  %43 = getelementptr inbounds i8, ptr %40, i64 %42
  %44 = load i8, ptr %43, align 1, !tbaa !8
  %45 = zext i8 %44 to i16
  %46 = getelementptr inbounds i8, ptr %41, i64 %42
  %47 = load i8, ptr %46, align 1, !tbaa !8
  %48 = zext i8 %47 to i16
  %49 = add nuw nsw i16 %48, %45
  %50 = lshr i16 %49, 1
  %51 = trunc nuw i16 %50 to i8
  %52 = getelementptr inbounds i8, ptr %38, i64 %indvars.iv.i28.us.us
  store i8 %51, ptr %52, align 1, !tbaa !8
  %53 = or disjoint i64 %42, 2
  %54 = getelementptr inbounds i8, ptr %40, i64 %53
  %55 = load i8, ptr %54, align 1, !tbaa !8
  %56 = zext i8 %55 to i16
  %57 = getelementptr inbounds i8, ptr %41, i64 %53
  %58 = load i8, ptr %57, align 1, !tbaa !8
  %59 = zext i8 %58 to i16
  %60 = add nuw nsw i16 %59, %56
  %61 = lshr i16 %60, 1
  %62 = trunc nuw i16 %61 to i8
  %63 = getelementptr inbounds i8, ptr %39, i64 %indvars.iv.i28.us.us
  store i8 %62, ptr %63, align 1, !tbaa !8
  %indvars.iv.next.i29.us.us = add nsw i64 %indvars.iv.i28.us.us, 1
  %exitcond.not.i30.us.us = icmp eq i64 %indvars.iv.next.i29.us.us, 0
  br i1 %exitcond.not.i30.us.us, label %extract_even2avg_c.exit.loopexit.us.us, label %.lr.ph.i27.us.us, !llvm.loop !94

64:                                               ; preds = %extract_even2avg_c.exit.loopexit.us.us, %extract_even_c.exit.loopexit.us.us
  %.124.us.us = phi ptr [ %69, %extract_even2avg_c.exit.loopexit.us.us ], [ %.02332.us.us, %extract_even_c.exit.loopexit.us.us ]
  %.1.us.us = phi ptr [ %68, %extract_even2avg_c.exit.loopexit.us.us ], [ %.02233.us.us, %extract_even_c.exit.loopexit.us.us ]
  %65 = getelementptr inbounds i8, ptr %.02531.us.us, i64 %19
  %66 = getelementptr inbounds i8, ptr %.035.us.us, i64 %28
  %67 = add nuw nsw i32 %.02134.us.us, 1
  %exitcond57.not = icmp eq i32 %67, %5
  br i1 %exitcond57.not, label %._crit_edge, label %.lr.ph.preheader.i.us.us, !llvm.loop !95

extract_even2avg_c.exit.loopexit.us.us:           ; preds = %.lr.ph.i27.us.us
  %68 = getelementptr inbounds i8, ptr %.02233.us.us, i64 %27
  %69 = getelementptr inbounds i8, ptr %.02332.us.us, i64 %27
  br label %64

extract_even_c.exit.loopexit.us.us:               ; preds = %.lr.ph.i.us.us
  %70 = and i32 %.02134.us.us, 1
  %.not.us.us = icmp eq i32 %70, 0
  br i1 %.not.us.us, label %64, label %.lr.ph.preheader.i26.us.us

extract_even_c.exit.us:                           ; preds = %.lr.ph.split.us, %99
  %.02134.us = phi i32 [ %101, %99 ], [ 0, %.lr.ph.split.us ]
  %.02233.us = phi ptr [ %.1.us, %99 ], [ %1, %.lr.ph.split.us ]
  %.02332.us = phi ptr [ %.124.us, %99 ], [ %2, %.lr.ph.split.us ]
  %.02531.us = phi ptr [ %100, %99 ], [ %3, %.lr.ph.split.us ]
  %71 = and i32 %.02134.us, 1
  %.not.us = icmp eq i32 %71, 0
  br i1 %.not.us, label %99, label %.lr.ph.preheader.i26.us

.lr.ph.preheader.i26.us:                          ; preds = %extract_even_c.exit.us
  %72 = getelementptr inbounds i8, ptr %.02531.us, i64 %20
  %73 = getelementptr inbounds nuw i8, ptr %.02233.us, i64 %21
  %74 = getelementptr inbounds nuw i8, ptr %.02332.us, i64 %21
  %75 = getelementptr inbounds nuw i8, ptr %72, i64 %23
  %76 = getelementptr inbounds nuw i8, ptr %.02531.us, i64 %23
  br label %.lr.ph.i27.us

.lr.ph.i27.us:                                    ; preds = %.lr.ph.i27.us, %.lr.ph.preheader.i26.us
  %indvars.iv.i28.us = phi i64 [ %26, %.lr.ph.preheader.i26.us ], [ %indvars.iv.next.i29.us, %.lr.ph.i27.us ]
  %77 = shl nsw i64 %indvars.iv.i28.us, 2
  %78 = getelementptr inbounds i8, ptr %75, i64 %77
  %79 = load i8, ptr %78, align 1, !tbaa !8
  %80 = zext i8 %79 to i16
  %81 = getelementptr inbounds i8, ptr %76, i64 %77
  %82 = load i8, ptr %81, align 1, !tbaa !8
  %83 = zext i8 %82 to i16
  %84 = add nuw nsw i16 %83, %80
  %85 = lshr i16 %84, 1
  %86 = trunc nuw i16 %85 to i8
  %87 = getelementptr inbounds i8, ptr %73, i64 %indvars.iv.i28.us
  store i8 %86, ptr %87, align 1, !tbaa !8
  %88 = or disjoint i64 %77, 2
  %89 = getelementptr inbounds i8, ptr %75, i64 %88
  %90 = load i8, ptr %89, align 1, !tbaa !8
  %91 = zext i8 %90 to i16
  %92 = getelementptr inbounds i8, ptr %76, i64 %88
  %93 = load i8, ptr %92, align 1, !tbaa !8
  %94 = zext i8 %93 to i16
  %95 = add nuw nsw i16 %94, %91
  %96 = lshr i16 %95, 1
  %97 = trunc nuw i16 %96 to i8
  %98 = getelementptr inbounds i8, ptr %74, i64 %indvars.iv.i28.us
  store i8 %97, ptr %98, align 1, !tbaa !8
  %indvars.iv.next.i29.us = add nsw i64 %indvars.iv.i28.us, 1
  %exitcond.not.i30.us = icmp eq i64 %indvars.iv.next.i29.us, 0
  br i1 %exitcond.not.i30.us, label %extract_even2avg_c.exit.loopexit.us, label %.lr.ph.i27.us, !llvm.loop !94

99:                                               ; preds = %extract_even2avg_c.exit.loopexit.us, %extract_even_c.exit.us
  %.124.us = phi ptr [ %103, %extract_even2avg_c.exit.loopexit.us ], [ %.02332.us, %extract_even_c.exit.us ]
  %.1.us = phi ptr [ %102, %extract_even2avg_c.exit.loopexit.us ], [ %.02233.us, %extract_even_c.exit.us ]
  %100 = getelementptr inbounds i8, ptr %.02531.us, i64 %19
  %101 = add nuw nsw i32 %.02134.us, 1
  %exitcond56.not = icmp eq i32 %101, %5
  br i1 %exitcond56.not, label %._crit_edge, label %extract_even_c.exit.us, !llvm.loop !95

extract_even2avg_c.exit.loopexit.us:              ; preds = %.lr.ph.i27.us
  %102 = getelementptr inbounds i8, ptr %.02233.us, i64 %27
  %103 = getelementptr inbounds i8, ptr %.02332.us, i64 %27
  br label %99

.lr.ph.split:                                     ; preds = %.lr.ph
  br i1 %16, label %.lr.ph.preheader.i.us41, label %._crit_edge

.lr.ph.preheader.i.us41:                          ; preds = %.lr.ph.split, %extract_even_c.exit.loopexit.us51
  %.035.us36 = phi ptr [ %113, %extract_even_c.exit.loopexit.us51 ], [ %0, %.lr.ph.split ]
  %.02134.us37 = phi i32 [ %114, %extract_even_c.exit.loopexit.us51 ], [ 0, %.lr.ph.split ]
  %.02531.us40 = phi ptr [ %112, %extract_even_c.exit.loopexit.us51 ], [ %3, %.lr.ph.split ]
  %104 = getelementptr inbounds nuw i8, ptr %.02531.us40, i64 1
  %105 = getelementptr inbounds nuw i8, ptr %.035.us36, i64 %13
  %106 = getelementptr inbounds nuw i8, ptr %104, i64 %15
  br label %.lr.ph.i.us42

.lr.ph.i.us42:                                    ; preds = %.lr.ph.i.us42, %.lr.ph.preheader.i.us41
  %indvars.iv.i.us43 = phi i64 [ %18, %.lr.ph.preheader.i.us41 ], [ %indvars.iv.next.i.us44, %.lr.ph.i.us42 ]
  %107 = shl nsw i64 %indvars.iv.i.us43, 1
  %108 = getelementptr inbounds i8, ptr %106, i64 %107
  %109 = load i8, ptr %108, align 1, !tbaa !8
  %110 = getelementptr inbounds i8, ptr %105, i64 %indvars.iv.i.us43
  store i8 %109, ptr %110, align 1, !tbaa !8
  %indvars.iv.next.i.us44 = add nsw i64 %indvars.iv.i.us43, 1
  %111 = and i64 %indvars.iv.next.i.us44, 4294967295
  %exitcond.not.i.us45 = icmp eq i64 %111, 0
  br i1 %exitcond.not.i.us45, label %extract_even_c.exit.loopexit.us51, label %.lr.ph.i.us42, !llvm.loop !93

extract_even_c.exit.loopexit.us51:                ; preds = %.lr.ph.i.us42
  %112 = getelementptr inbounds i8, ptr %.02531.us40, i64 %19
  %113 = getelementptr inbounds i8, ptr %.035.us36, i64 %28
  %114 = add nuw nsw i32 %.02134.us37, 1
  %exitcond.not = icmp eq i32 %114, %5
  br i1 %exitcond.not, label %._crit_edge, label %.lr.ph.preheader.i.us41, !llvm.loop !95

._crit_edge:                                      ; preds = %extract_even_c.exit.loopexit.us51, %99, %64, %.lr.ph.split, %9
  ret void
}